target datalayout = "e-m:e-p270:32:32-p271:32:32-p272:64:64-i64:64-i128:128-f80:128-n8:16:32:64-S128"
target triple = "x86_64-unknown-linux-gnu"

%struct.QObjectBase_ = type { i32, i64 }
%struct.QObjectInputVisitor = type { %struct.Visitor, ptr, i8, %struct.anon, ptr }
%struct.Visitor = type { ptr, ptr, ptr, ptr, ptr, ptr, ptr, ptr, ptr, ptr, ptr, ptr, ptr, ptr, ptr, ptr, ptr, ptr, ptr, ptr, i32, %struct.CompatPolicy, ptr, ptr }
%struct.CompatPolicy = type { i8, i32, i8, i32, i8, i32, i8, i32 }
%struct.anon = type { ptr }
%struct.QObject = type { %struct.QObjectBase_ }
%struct.StackObject = type { ptr, ptr, ptr, ptr, ptr, i32, %struct.anon.1 }
%struct.anon.1 = type { ptr }
%struct.QListEntry = type { ptr, %union.anon }
%union.anon = type { %struct.QTailQLink }
%struct.QTailQLink = type { ptr, ptr }

@.str.1 = private unnamed_addr constant [37 x i8] c"../qemu/qapi/qobject-input-visitor.c\00", align 1
@.str.6 = private unnamed_addr constant [10 x i8] c"qiv->root\00", align 1
@__PRETTY_FUNCTION__.qobject_input_try_get_object = private unnamed_addr constant [82 x i8] c"QObject *qobject_input_try_get_object(QObjectInputVisitor *, const char *, _Bool)\00", align 1
@.str.7 = private unnamed_addr constant [5 x i8] c"qobj\00", align 1
@.str.8 = private unnamed_addr constant [5 x i8] c"name\00", align 1
@.str.9 = private unnamed_addr constant [8 x i8] c"removed\00", align 1
@.str.10 = private unnamed_addr constant [34 x i8] c"qobject_type(qobj) == QTYPE_QLIST\00", align 1
@.str.11 = private unnamed_addr constant [6 x i8] c"!name\00", align 1
@.str.12 = private unnamed_addr constant [59 x i8] c"QTYPE_NONE < obj->base.type && obj->base.type < QTYPE__MAX\00", align 1
@.str.13 = private unnamed_addr constant [105 x i8] c"/home/dtcxzyw/WorkSpace/Projects/compilers/llvm-opt-benchmark/bench/qemu/qemu/include/qapi/qmp/qobject.h\00", align 1
@__PRETTY_FUNCTION__.qobject_type = private unnamed_addr constant [36 x i8] c"QType qobject_type(const QObject *)\00", align 1

; Function Attrs: nounwind sspstrong uwtable
define internal ptr @qlist_next(ptr noundef %entry1) #0 {
entry:
  %entry.addr = alloca ptr, align 8
  store ptr %entry1, ptr %entry.addr, align 8
  %0 = load ptr, ptr %entry.addr, align 8
  %next = getelementptr inbounds %struct.QListEntry, ptr %0, i32 0, i32 1
  %1 = load ptr, ptr %next, align 8
  ret ptr %1
}

; Function Attrs: nounwind sspstrong uwtable
define internal ptr @qlist_entry_obj(ptr noundef %entry1) #0 {
entry:
  %entry.addr = alloca ptr, align 8
  store ptr %entry1, ptr %entry.addr, align 8
  %0 = load ptr, ptr %entry.addr, align 8
  %value = getelementptr inbounds %struct.QListEntry, ptr %0, i32 0, i32 0
  %1 = load ptr, ptr %value, align 8
  ret ptr %1
}

; Function Attrs: nounwind sspstrong uwtable
define internal ptr @qobject_check_type(ptr noundef %obj, i32 noundef %type) #0 {
entry:
  %retval = alloca ptr, align 8
  %obj.addr = alloca ptr, align 8
  %type.addr = alloca i32, align 4
  store ptr %obj, ptr %obj.addr, align 8
  store i32 %type, ptr %type.addr, align 4
  %0 = load ptr, ptr %obj.addr, align 8
  %tobool = icmp ne ptr %0, null
  br i1 %tobool, label %land.lhs.true, label %if.else

land.lhs.true:                                    ; preds = %entry
  %1 = load ptr, ptr %obj.addr, align 8
  %call = call i32 @qobject_type(ptr noundef %1)
  %2 = load i32, ptr %type.addr, align 4
  %cmp = icmp eq i32 %call, %2
  br i1 %cmp, label %if.then, label %if.else

if.then:                                          ; preds = %land.lhs.true
  %3 = load ptr, ptr %obj.addr, align 8
  store ptr %3, ptr %retval, align 8
  br label %return

if.else:                                          ; preds = %land.lhs.true, %entry
  store ptr null, ptr %retval, align 8
  br label %return

return:                                           ; preds = %if.else, %if.then
  %4 = load ptr, ptr %retval, align 8
  ret ptr %4
}

; Function Attrs: nounwind sspstrong uwtable
define internal i32 @qobject_type(ptr noundef %obj) #0 {
entry:
  %obj.addr = alloca ptr, align 8
  store ptr %obj, ptr %obj.addr, align 8
  %0 = load ptr, ptr %obj.addr, align 8
  %base = getelementptr inbounds %struct.QObject, ptr %0, i32 0, i32 0
  %type = getelementptr inbounds %struct.QObjectBase_, ptr %base, i32 0, i32 0
  %1 = load i32, ptr %type, align 8
  %cmp = icmp ult i32 0, %1
  br i1 %cmp, label %land.lhs.true, label %if.else

land.lhs.true:                                    ; preds = %entry
  %2 = load ptr, ptr %obj.addr, align 8
  %base1 = getelementptr inbounds %struct.QObject, ptr %2, i32 0, i32 0
  %type2 = getelementptr inbounds %struct.QObjectBase_, ptr %base1, i32 0, i32 0
  %3 = load i32, ptr %type2, align 8
  %cmp3 = icmp ult i32 %3, 7
  br i1 %cmp3, label %if.then, label %if.else

if.then:                                          ; preds = %land.lhs.true
  br label %if.end

if.else:                                          ; preds = %land.lhs.true, %entry
  call void @__assert_fail(ptr noundef @.str.12, ptr noundef @.str.13, i32 noundef 126, ptr noundef @__PRETTY_FUNCTION__.qobject_type) #7
  unreachable

if.end:                                           ; preds = %if.then
  %4 = load ptr, ptr %obj.addr, align 8
  %base4 = getelementptr inbounds %struct.QObject, ptr %4, i32 0, i32 0
  %type5 = getelementptr inbounds %struct.QObjectBase_, ptr %base4, i32 0, i32 0
  %5 = load i32, ptr %type5, align 8
  ret i32 %5
}

; Function Attrs: nounwind sspstrong uwtable
define internal ptr @qobject_input_try_get_object(ptr noundef %qiv, ptr noundef %name, i1 noundef zeroext %consume) #0 {
entry:
  %retval = alloca ptr, align 8
  %qiv.addr = alloca ptr, align 8
  %name.addr = alloca ptr, align 8
  %consume.addr = alloca i8, align 1
  %tos = alloca ptr, align 8
  %qobj = alloca ptr, align 8
  %ret = alloca ptr, align 8
  %removed = alloca i8, align 1
  store ptr %qiv, ptr %qiv.addr, align 8
  store ptr %name, ptr %name.addr, align 8
  %frombool = zext i1 %consume to i8
  store i8 %frombool, ptr %consume.addr, align 1
  %0 = load ptr, ptr %qiv.addr, align 8
  %stack = getelementptr inbounds %struct.QObjectInputVisitor, ptr %0, i32 0, i32 3
  %slh_first = getelementptr inbounds %struct.anon, ptr %stack, i32 0, i32 0
  %1 = load ptr, ptr %slh_first, align 8
  %cmp = icmp eq ptr %1, null
  br i1 %cmp, label %if.then, label %if.end3

if.then:                                          ; preds = %entry
  %2 = load ptr, ptr %qiv.addr, align 8
  %root = getelementptr inbounds %struct.QObjectInputVisitor, ptr %2, i32 0, i32 1
  %3 = load ptr, ptr %root, align 8
  %tobool = icmp ne ptr %3, null
  br i1 %tobool, label %if.then1, label %if.else

if.then1:                                         ; preds = %if.then
  br label %if.end

if.else:                                          ; preds = %if.then
  call void @__assert_fail(ptr noundef @.str.6, ptr noundef @.str.1, i32 noundef 129, ptr noundef @__PRETTY_FUNCTION__.qobject_input_try_get_object) #7
  unreachable

if.end:                                           ; preds = %if.then1
  %4 = load ptr, ptr %qiv.addr, align 8
  %root2 = getelementptr inbounds %struct.QObjectInputVisitor, ptr %4, i32 0, i32 1
  %5 = load ptr, ptr %root2, align 8
  store ptr %5, ptr %retval, align 8
  br label %return

if.end3:                                          ; preds = %entry
  %6 = load ptr, ptr %qiv.addr, align 8
  %stack4 = getelementptr inbounds %struct.QObjectInputVisitor, ptr %6, i32 0, i32 3
  %slh_first5 = getelementptr inbounds %struct.anon, ptr %stack4, i32 0, i32 0
  %7 = load ptr, ptr %slh_first5, align 8
  store ptr %7, ptr %tos, align 8
  %8 = load ptr, ptr %tos, align 8
  %obj = getelementptr inbounds %struct.StackObject, ptr %8, i32 0, i32 1
  %9 = load ptr, ptr %obj, align 8
  store ptr %9, ptr %qobj, align 8
  %10 = load ptr, ptr %qobj, align 8
  %tobool6 = icmp ne ptr %10, null
  br i1 %tobool6, label %if.then7, label %if.else8

if.then7:                                         ; preds = %if.end3
  br label %if.end9

if.else8:                                         ; preds = %if.end3
  call void @__assert_fail(ptr noundef @.str.7, ptr noundef @.str.1, i32 noundef 136, ptr noundef @__PRETTY_FUNCTION__.qobject_input_try_get_object) #7
  unreachable

if.end9:                                          ; preds = %if.then7
  %11 = load ptr, ptr %qobj, align 8
  %call = call i32 @qobject_type(ptr noundef %11)
  %cmp10 = icmp eq i32 %call, 4
  br i1 %cmp10, label %if.then11, label %if.else32

if.then11:                                        ; preds = %if.end9
  %12 = load ptr, ptr %name.addr, align 8
  %tobool12 = icmp ne ptr %12, null
  br i1 %tobool12, label %if.then13, label %if.else14

if.then13:                                        ; preds = %if.then11
  br label %if.end15

if.else14:                                        ; preds = %if.then11
  call void @__assert_fail(ptr noundef @.str.8, ptr noundef @.str.1, i32 noundef 139, ptr noundef @__PRETTY_FUNCTION__.qobject_input_try_get_object) #7
  unreachable

if.end15:                                         ; preds = %if.then13
  %13 = load ptr, ptr %qobj, align 8
  %call16 = call ptr @qobject_check_type(ptr noundef %13, i32 noundef 4)
  %14 = load ptr, ptr %name.addr, align 8
  %call17 = call ptr @qdict_get(ptr noundef %call16, ptr noundef %14)
  store ptr %call17, ptr %ret, align 8
  %15 = load ptr, ptr %tos, align 8
  %h = getelementptr inbounds %struct.StackObject, ptr %15, i32 0, i32 3
  %16 = load ptr, ptr %h, align 8
  %tobool18 = icmp ne ptr %16, null
  br i1 %tobool18, label %land.lhs.true, label %if.end31

land.lhs.true:                                    ; preds = %if.end15
  %17 = load i8, ptr %consume.addr, align 1
  %tobool19 = trunc i8 %17 to i1
  br i1 %tobool19, label %land.lhs.true20, label %if.end31

land.lhs.true20:                                  ; preds = %land.lhs.true
  %18 = load ptr, ptr %ret, align 8
  %tobool21 = icmp ne ptr %18, null
  br i1 %tobool21, label %if.then22, label %if.end31

if.then22:                                        ; preds = %land.lhs.true20
  %19 = load ptr, ptr %tos, align 8
  %h23 = getelementptr inbounds %struct.StackObject, ptr %19, i32 0, i32 3
  %20 = load ptr, ptr %h23, align 8
  %21 = load ptr, ptr %name.addr, align 8
  %call24 = call i32 @g_hash_table_remove(ptr noundef %20, ptr noundef %21)
  %tobool25 = icmp ne i32 %call24, 0
  %frombool26 = zext i1 %tobool25 to i8
  store i8 %frombool26, ptr %removed, align 1
  %22 = load i8, ptr %removed, align 1
  %tobool27 = trunc i8 %22 to i1
  br i1 %tobool27, label %if.then28, label %if.else29

if.then28:                                        ; preds = %if.then22
  br label %if.end30

if.else29:                                        ; preds = %if.then22
  call void @__assert_fail(ptr noundef @.str.9, ptr noundef @.str.1, i32 noundef 143, ptr noundef @__PRETTY_FUNCTION__.qobject_input_try_get_object) #7
  unreachable

if.end30:                                         ; preds = %if.then28
  br label %if.end31

if.end31:                                         ; preds = %if.end30, %land.lhs.true20, %land.lhs.true, %if.end15
  br label %if.end58

if.else32:                                        ; preds = %if.end9
  %23 = load ptr, ptr %qobj, align 8
  %call33 = call i32 @qobject_type(ptr noundef %23)
  %cmp34 = icmp eq i32 %call33, 5
  br i1 %cmp34, label %if.then35, label %if.else36

if.then35:                                        ; preds = %if.else32
  br label %if.end37

if.else36:                                        ; preds = %if.else32
  call void @__assert_fail(ptr noundef @.str.10, ptr noundef @.str.1, i32 noundef 146, ptr noundef @__PRETTY_FUNCTION__.qobject_input_try_get_object) #7
  unreachable

if.end37:                                         ; preds = %if.then35
  %24 = load ptr, ptr %name.addr, align 8
  %tobool38 = icmp ne ptr %24, null
  br i1 %tobool38, label %if.else40, label %if.then39

if.then39:                                        ; preds = %if.end37
  br label %if.end41

if.else40:                                        ; preds = %if.end37
  call void @__assert_fail(ptr noundef @.str.11, ptr noundef @.str.1, i32 noundef 147, ptr noundef @__PRETTY_FUNCTION__.qobject_input_try_get_object) #7
  unreachable

if.end41:                                         ; preds = %if.then39
  %25 = load ptr, ptr %tos, align 8
  %entry42 = getelementptr inbounds %struct.StackObject, ptr %25, i32 0, i32 4
  %26 = load ptr, ptr %entry42, align 8
  %tobool43 = icmp ne ptr %26, null
  br i1 %tobool43, label %if.then44, label %if.else53

if.then44:                                        ; preds = %if.end41
  %27 = load ptr, ptr %tos, align 8
  %entry45 = getelementptr inbounds %struct.StackObject, ptr %27, i32 0, i32 4
  %28 = load ptr, ptr %entry45, align 8
  %call46 = call ptr @qlist_entry_obj(ptr noundef %28)
  store ptr %call46, ptr %ret, align 8
  %29 = load i8, ptr %consume.addr, align 1
  %tobool47 = trunc i8 %29 to i1
  br i1 %tobool47, label %if.then48, label %if.end52

if.then48:                                        ; preds = %if.then44
  %30 = load ptr, ptr %tos, align 8
  %entry49 = getelementptr inbounds %struct.StackObject, ptr %30, i32 0, i32 4
  %31 = load ptr, ptr %entry49, align 8
  %call50 = call ptr @qlist_next(ptr noundef %31)
  %32 = load ptr, ptr %tos, align 8
  %entry51 = getelementptr inbounds %struct.StackObject, ptr %32, i32 0, i32 4
  store ptr %call50, ptr %entry51, align 8
  br label %if.end52

if.end52:                                         ; preds = %if.then48, %if.then44
  br label %if.end54

if.else53:                                        ; preds = %if.end41
  store ptr null, ptr %ret, align 8
  br label %if.end54

if.end54:                                         ; preds = %if.else53, %if.end52
  %33 = load i8, ptr %consume.addr, align 1
  %tobool55 = trunc i8 %33 to i1
  br i1 %tobool55, label %if.then56, label %if.end57

if.then56:                                        ; preds = %if.end54
  %34 = load ptr, ptr %tos, align 8
  %index = getelementptr inbounds %struct.StackObject, ptr %34, i32 0, i32 5
  %35 = load i32, ptr %index, align 8
  %inc = add i32 %35, 1
  store i32 %inc, ptr %index, align 8
  br label %if.end57

if.end57:                                         ; preds = %if.then56, %if.end54
  br label %if.end58

if.end58:                                         ; preds = %if.end57, %if.end31
  %36 = load ptr, ptr %ret, align 8
  store ptr %36, ptr %retval, align 8
  br label %return

return:                                           ; preds = %if.end58, %if.end
  %37 = load ptr, ptr %retval, align 8
  ret ptr %37
}