; Function Attrs: nounwind sspstrong uwtable
define internal fastcc ptr @qobject_input_try_get_object(ptr noundef readonly captures(none) %qiv, ptr noundef %name, i1 noundef zeroext %consume) unnamed_addr #0 {
entry:
  %stack = getelementptr inbounds nuw i8, ptr %qiv, i64 232
  %0 = load ptr, ptr %stack, align 8
  %cmp = icmp eq ptr %0, null
  br i1 %cmp, label %if.then, label %if.end3

if.then:                                          ; preds = %entry
  %root = getelementptr inbounds nuw i8, ptr %qiv, i64 216
  %1 = load ptr, ptr %root, align 8
  %tobool.not = icmp eq ptr %1, null
  br i1 %tobool.not, label %if.else, label %return

if.else:                                          ; preds = %if.then
  tail call void @__assert_fail(ptr noundef nonnull @.str.6, ptr noundef nonnull @.str.1, i32 noundef 129, ptr noundef nonnull @__PRETTY_FUNCTION__.qobject_input_try_get_object) #7
  unreachable

if.end3:                                          ; preds = %entry
  %obj = getelementptr inbounds nuw i8, ptr %0, i64 8
  %2 = load ptr, ptr %obj, align 8
  %tobool6.not = icmp eq ptr %2, null
  br i1 %tobool6.not, label %if.else8, label %if.end9

if.else8:                                         ; preds = %if.end3
  tail call void @__assert_fail(ptr noundef nonnull @.str.7, ptr noundef nonnull @.str.1, i32 noundef 136, ptr noundef nonnull @__PRETTY_FUNCTION__.qobject_input_try_get_object) #7
  unreachable

if.end9:                                          ; preds = %if.end3
  %.val25 = load i32, ptr %2, align 8
  %3 = add i32 %.val25, -1
  %or.cond.i = icmp ult i32 %3, 6
  br i1 %or.cond.i, label %qobject_type.exit, label %if.else.i

if.else.i:                                        ; preds = %if.end9
  tail call void @__assert_fail(ptr noundef nonnull @.str.12, ptr noundef nonnull @.str.13, i32 noundef 126, ptr noundef nonnull @__PRETTY_FUNCTION__.qobject_type) #7
  unreachable

qobject_type.exit:                                ; preds = %if.end9
  switch i32 %.val25, label %if.else36 [
    i32 4, label %if.then11
    i32 5, label %if.end37
  ]

if.then11:                                        ; preds = %qobject_type.exit
  %tobool12.not = icmp eq ptr %name, null
  br i1 %tobool12.not, label %if.else14, label %qobject_check_type.exit

if.else14:                                        ; preds = %if.then11
  tail call void @__assert_fail(ptr noundef nonnull @.str.8, ptr noundef nonnull @.str.1, i32 noundef 139, ptr noundef nonnull @__PRETTY_FUNCTION__.qobject_input_try_get_object) #7
  unreachable

qobject_check_type.exit:                          ; preds = %if.then11
  %call17 = tail call ptr @qdict_get(ptr noundef nonnull %2, ptr noundef nonnull %name) #8
  %h = getelementptr inbounds nuw i8, ptr %0, i64 24
  %4 = load ptr, ptr %h, align 8
  %tobool18.not = icmp ne ptr %4, null
  %tobool21 = icmp ne ptr %call17, null
  %5 = and i1 %consume, %tobool18.not
  %or.cond24 = select i1 %5, i1 %tobool21, i1 false
  br i1 %or.cond24, label %if.then22, label %return

if.then22:                                        ; preds = %qobject_check_type.exit
  %call24 = tail call i32 @g_hash_table_remove(ptr noundef nonnull %4, ptr noundef nonnull %name) #8
  %tobool25.not = icmp eq i32 %call24, 0
  br i1 %tobool25.not, label %if.else29, label %return

if.else29:                                        ; preds = %if.then22
  tail call void @__assert_fail(ptr noundef nonnull @.str.9, ptr noundef nonnull @.str.1, i32 noundef 143, ptr noundef nonnull @__PRETTY_FUNCTION__.qobject_input_try_get_object) #7
  unreachable

if.else36:                                        ; preds = %qobject_type.exit
  tail call void @__assert_fail(ptr noundef nonnull @.str.10, ptr noundef nonnull @.str.1, i32 noundef 146, ptr noundef nonnull @__PRETTY_FUNCTION__.qobject_input_try_get_object) #7
  unreachable

if.end37:                                         ; preds = %qobject_type.exit
  %tobool38.not = icmp eq ptr %name, null
  br i1 %tobool38.not, label %if.end41, label %if.else40

if.else40:                                        ; preds = %if.end37
  tail call void @__assert_fail(ptr noundef nonnull @.str.11, ptr noundef nonnull @.str.1, i32 noundef 147, ptr noundef nonnull @__PRETTY_FUNCTION__.qobject_input_try_get_object) #7
  unreachable

if.end41:                                         ; preds = %if.end37
  %entry42 = getelementptr inbounds nuw i8, ptr %0, i64 32
  %6 = load ptr, ptr %entry42, align 8
  %tobool43.not = icmp eq ptr %6, null
  br i1 %tobool43.not, label %if.end54, label %if.then44

if.then44:                                        ; preds = %if.end41
  %.val26 = load ptr, ptr %6, align 8
  br i1 %consume, label %if.end54.thread, label %return

if.end54.thread:                                  ; preds = %if.then44
  %7 = getelementptr i8, ptr %6, i64 8
  %.val27 = load ptr, ptr %7, align 8
  store ptr %.val27, ptr %entry42, align 8
  br label %if.then56

if.end54:                                         ; preds = %if.end41
  br i1 %consume, label %if.then56, label %return

if.then56:                                        ; preds = %if.end54.thread, %if.end54
  %ret.133 = phi ptr [ %.val26, %if.end54.thread ], [ null, %if.end54 ]
  %index = getelementptr inbounds nuw i8, ptr %0, i64 40
  %8 = load i32, ptr %index, align 8
  %inc = add i32 %8, 1
  store i32 %inc, ptr %index, align 8
  br label %return

return:                                           ; preds = %if.then44, %if.then22, %qobject_check_type.exit, %if.then56, %if.end54, %if.then
  %retval.0 = phi ptr [ %1, %if.then ], [ %call17, %if.then22 ], [ %call17, %qobject_check_type.exit ], [ %ret.133, %if.then56 ], [ null, %if.end54 ], [ %.val26, %if.then44 ]
  ret ptr %retval.0
}